target datalayout = "e-m:e-p270:32:32-p271:32:32-p272:64:64-i64:64-i128:128-f80:128-n8:16:32:64-S128"
target triple = "x86_64-pc-linux-gnu"

@.str.1 = private unnamed_addr constant [3 x i8] c"%s\00", align 1
@.str.14 = private unnamed_addr constant [8 x i8] c"Unknown\00", align 1
@hf_gtpv2_bearer_control_mode = internal global i32 0, align 4

; Function Attrs: null_pointer_is_valid sspstrong uwtable
define internal void @dissect_gtpv2_bearer_control_mode(ptr noundef %0, ptr noundef %1, ptr noundef %2, ptr noundef %3, i16 noundef zeroext %4, i8 noundef zeroext %5, i8 noundef zeroext %6, ptr noundef %7) #1 {
  %9 = alloca ptr, align 8
  %10 = alloca ptr, align 8
  %11 = alloca ptr, align 8
  %12 = alloca ptr, align 8
  %13 = alloca i16, align 2
  %14 = alloca i8, align 1
  %15 = alloca i8, align 1
  %16 = alloca ptr, align 8
  %17 = alloca i8, align 1
  store ptr %0, ptr %9, align 8
  store ptr %1, ptr %10, align 8
  store ptr %2, ptr %11, align 8
  store ptr %3, ptr %12, align 8
  store i16 %4, ptr %13, align 2
  store i8 %5, ptr %14, align 1
  store i8 %6, ptr %15, align 1
  store ptr %7, ptr %16, align 8
  call void @llvm.lifetime.start.p0(i64 1, ptr %17) #11
  %18 = load ptr, ptr %11, align 8
  %19 = load i32, ptr @hf_gtpv2_bearer_control_mode, align 4
  %20 = load ptr, ptr %9, align 8
  %21 = call ptr @proto_tree_add_item(ptr noundef %18, i32 noundef %19, ptr noundef %20, i32 noundef 0, i32 noundef 1, i32 noundef 0)
  %22 = load ptr, ptr %9, align 8
  %23 = call zeroext i8 @tvb_get_uint8(ptr noundef %22, i32 noundef 0)
  store i8 %23, ptr %17, align 1
  %24 = load ptr, ptr %12, align 8
  %25 = load i8, ptr %17, align 1
  %26 = zext i8 %25 to i32
  %27 = call ptr @val_to_str_const(i32 noundef %26, ptr noundef @gtpv2_bearer_control_mode_short_vals, ptr noundef @.str.14)
  call void (ptr, ptr, ...) @proto_item_append_text(ptr noundef %24, ptr noundef @.str.1, ptr noundef %27)
  call void @llvm.lifetime.end.p0(i64 1, ptr %17) #11
  ret void
}